target datalayout = "e-m:e-p270:32:32-p271:32:32-p272:64:64-i64:64-i128:128-f80:128-n8:16:32:64-S128"
target triple = "x86_64-pc-linux-gnu"

%struct.PS_Builder_FuncsRec_ = type { ptr, ptr }
%struct.FT_Vector_ = type { i64, i64 }
%struct.PS_Builder_ = type { ptr, ptr, ptr, ptr, ptr, ptr, ptr, ptr, ptr, ptr, ptr, i8, i8, i8, i8, i8, %struct.PS_Builder_FuncsRec_ }
%struct.FT_Matrix_ = type { i64, i64, i64, i64 }
%struct.PS_Decoder_ = type { %struct.PS_Builder_, [49 x i64], ptr, [17 x %struct.PS_Decoder_Zone_], ptr, i32, i32, [7 x %struct.FT_Vector_], ptr, ptr, ptr, ptr, i8, i32, i32, i32, i32, i32, ptr, ptr, ptr, i32, i32, i8, ptr, ptr, ptr, i32, ptr, ptr, %struct.FT_Matrix_, %struct.FT_Vector_, ptr, ptr, i32 }
%struct.PS_Decoder_Zone_ = type { ptr, ptr, ptr }
%struct.FT_Service_PsCMapsRec_ = type { ptr, ptr, ptr, ptr, ptr, ptr, ptr, ptr }

; Function Attrs: nounwind uwtable
define internal i32 @t1_lookup_glyph_by_stdcharcode_ps(ptr noundef %0, i32 noundef %1) #0 {
  %3 = alloca i32, align 4
  %4 = alloca ptr, align 8
  %5 = alloca i32, align 4
  %6 = alloca i32, align 4
  %7 = alloca ptr, align 8
  %8 = alloca ptr, align 8
  %9 = alloca ptr, align 8
  store ptr %0, ptr %4, align 8
  store i32 %1, ptr %5, align 4
  %10 = load ptr, ptr %4, align 8
  %11 = getelementptr inbounds %struct.PS_Decoder_, ptr %10, i32 0, i32 26
  %12 = load ptr, ptr %11, align 8
  store ptr %12, ptr %8, align 8
  %13 = load i32, ptr %5, align 4
  %14 = icmp slt i32 %13, 0
  br i1 %14, label %18, label %15

15:                                               ; preds = %2
  %16 = load i32, ptr %5, align 4
  %17 = icmp sgt i32 %16, 255
  br i1 %17, label %18, label %19

18:                                               ; preds = %15, %2
  store i32 -1, ptr %3, align 4
  br label %70

19:                                               ; preds = %15
  %20 = load ptr, ptr %8, align 8
  %21 = getelementptr inbounds %struct.FT_Service_PsCMapsRec_, ptr %20, i32 0, i32 5
  %22 = load ptr, ptr %21, align 8
  %23 = load ptr, ptr %8, align 8
  %24 = getelementptr inbounds %struct.FT_Service_PsCMapsRec_, ptr %23, i32 0, i32 6
  %25 = load ptr, ptr %24, align 8
  %26 = load i32, ptr %5, align 4
  %27 = sext i32 %26 to i64
  %28 = getelementptr inbounds i16, ptr %25, i64 %27
  %29 = load i16, ptr %28, align 2
  %30 = zext i16 %29 to i32
  %31 = call ptr %22(i32 noundef %30)
  store ptr %31, ptr %7, align 8
  store i32 0, ptr %6, align 4
  br label %32

32:                                               ; preds = %66, %19
  %33 = load i32, ptr %6, align 4
  %34 = load ptr, ptr %4, align 8
  %35 = getelementptr inbounds %struct.PS_Decoder_, ptr %34, i32 0, i32 21
  %36 = load i32, ptr %35, align 8
  %37 = icmp ult i32 %33, %36
  br i1 %37, label %38, label %69

38:                                               ; preds = %32
  %39 = load ptr, ptr %4, align 8
  %40 = getelementptr inbounds %struct.PS_Decoder_, ptr %39, i32 0, i32 20
  %41 = load ptr, ptr %40, align 8
  %42 = load i32, ptr %6, align 4
  %43 = zext i32 %42 to i64
  %44 = getelementptr inbounds ptr, ptr %41, i64 %43
  %45 = load ptr, ptr %44, align 8
  store ptr %45, ptr %9, align 8
  %46 = load ptr, ptr %9, align 8
  %47 = icmp ne ptr %46, null
  br i1 %47, label %48, label %65

48:                                               ; preds = %38
  %49 = load ptr, ptr %9, align 8
  %50 = getelementptr inbounds i8, ptr %49, i64 0
  %51 = load i8, ptr %50, align 1
  %52 = sext i8 %51 to i32
  %53 = load ptr, ptr %7, align 8
  %54 = getelementptr inbounds i8, ptr %53, i64 0
  %55 = load i8, ptr %54, align 1
  %56 = sext i8 %55 to i32
  %57 = icmp eq i32 %52, %56
  br i1 %57, label %58, label %65

58:                                               ; preds = %48
  %59 = load ptr, ptr %9, align 8
  %60 = load ptr, ptr %7, align 8
  %61 = call i32 @strcmp(ptr noundef %59, ptr noundef %60) #6
  %62 = icmp eq i32 %61, 0
  br i1 %62, label %63, label %65

63:                                               ; preds = %58
  %64 = load i32, ptr %6, align 4
  store i32 %64, ptr %3, align 4
  br label %70

65:                                               ; preds = %58, %48, %38
  br label %66

66:                                               ; preds = %65
  %67 = load i32, ptr %6, align 4
  %68 = add i32 %67, 1
  store i32 %68, ptr %6, align 4
  br label %32, !llvm.loop !72

69:                                               ; preds = %32
  store i32 -1, ptr %3, align 4
  br label %70

70:                                               ; preds = %69, %63, %18
  %71 = load i32, ptr %3, align 4
  ret i32 %71
}