; Function Attrs: nounwind uwtable
define internal fastcc i32 @t1_lookup_glyph_by_stdcharcode_ps(ptr noundef readonly captures(none) %0, i32 noundef %1) unnamed_addr #0 {
  %or.cond = icmp ugt i32 %1, 255
  br i1 %or.cond, label %.loopexit, label %3

3:                                                ; preds = %2
  %4 = getelementptr inbounds nuw i8, ptr %0, i64 1160
  %5 = load ptr, ptr %4, align 8
  %6 = getelementptr inbounds nuw i8, ptr %5, i64 40
  %7 = load ptr, ptr %6, align 8
  %8 = getelementptr inbounds nuw i8, ptr %5, i64 48
  %9 = load ptr, ptr %8, align 8
  %10 = zext nneg i32 %1 to i64
  %11 = getelementptr inbounds nuw i16, ptr %9, i64 %10
  %12 = load i16, ptr %11, align 2
  %13 = zext i16 %12 to i32
  %14 = tail call ptr %7(i32 noundef %13) #20
  %15 = getelementptr inbounds nuw i8, ptr %0, i64 1128
  %16 = load i32, ptr %15, align 8
  %.not24 = icmp eq i32 %16, 0
  br i1 %.not24, label %.loopexit, label %.lr.ph

.lr.ph:                                           ; preds = %3
  %17 = getelementptr inbounds nuw i8, ptr %0, i64 1120
  %18 = load ptr, ptr %17, align 8
  %wide.trip.count = zext i32 %16 to i64
  br label %19

19:                                               ; preds = %.lr.ph, %29
  %indvars.iv = phi i64 [ 0, %.lr.ph ], [ %indvars.iv.next, %29 ]
  %20 = getelementptr inbounds nuw ptr, ptr %18, i64 %indvars.iv
  %21 = load ptr, ptr %20, align 8
  %.not = icmp eq ptr %21, null
  br i1 %.not, label %29, label %22

22:                                               ; preds = %19
  %23 = load i8, ptr %21, align 1
  %24 = load i8, ptr %14, align 1
  %25 = icmp eq i8 %23, %24
  br i1 %25, label %26, label %29

26:                                               ; preds = %22
  %27 = tail call i32 @strcmp(ptr noundef nonnull dereferenceable(1) %21, ptr noundef nonnull dereferenceable(1) %14) #21
  %28 = icmp eq i32 %27, 0
  br i1 %28, label %.loopexit.loopexit.split.loop.exit26, label %29

29:                                               ; preds = %19, %22, %26
  %indvars.iv.next = add nuw nsw i64 %indvars.iv, 1
  %exitcond.not = icmp eq i64 %indvars.iv.next, %wide.trip.count
  br i1 %exitcond.not, label %.loopexit, label %19, !llvm.loop !67

.loopexit.loopexit.split.loop.exit26:             ; preds = %26
  %30 = trunc nuw i64 %indvars.iv to i32
  br label %.loopexit

.loopexit:                                        ; preds = %29, %.loopexit.loopexit.split.loop.exit26, %3, %2
  %.0 = phi i32 [ -1, %2 ], [ -1, %3 ], [ %30, %.loopexit.loopexit.split.loop.exit26 ], [ -1, %29 ]
  ret i32 %.0
}